target datalayout = "e-m:e-p270:32:32-p271:32:32-p272:64:64-i64:64-i128:128-f80:128-n8:16:32:64-S128"
target triple = "x86_64-pc-linux-gnu"

%struct.z_stream_s = type { ptr, i32, i64, ptr, i32, i64, ptr, ptr, ptr, ptr, ptr, i32, i64, i64 }
%struct.internal_state = type { ptr, i32, ptr, i64, ptr, i64, i32, ptr, i64, i8, i32, i32, i32, i32, ptr, i64, ptr, ptr, i32, i32, i32, i32, i32, i64, i32, i32, i32, i32, i32, i32, i32, i32, i32, i32, i32, i32, i32, [573 x %struct.ct_data_s], [61 x %struct.ct_data_s], [39 x %struct.ct_data_s], %struct.tree_desc_s, %struct.tree_desc_s, %struct.tree_desc_s, [16 x i16], [573 x i32], i32, i32, [573 x i8], ptr, i32, i32, i32, i64, i64, i32, i32, i16, i32, i32, i64 }
%struct.ct_data_s = type { %union.anon, %union.anon.0 }
%union.anon = type { i16 }
%union.anon.0 = type { i16 }
%struct.tree_desc_s = type { ptr, i32, ptr }

; Function Attrs: nounwind uwtable
define internal i32 @deflateStateCheck(ptr noundef %0) #0 {
  %2 = alloca i32, align 4
  %3 = alloca ptr, align 8
  %4 = alloca ptr, align 8
  %5 = alloca i32, align 4
  store ptr %0, ptr %3, align 8, !tbaa !3
  call void @llvm.lifetime.start.p0(i64 8, ptr %4) #5
  %6 = load ptr, ptr %3, align 8, !tbaa !3
  %7 = icmp eq ptr %6, null
  br i1 %7, label %18, label %8

8:                                                ; preds = %1
  %9 = load ptr, ptr %3, align 8, !tbaa !3
  %10 = getelementptr inbounds nuw %struct.z_stream_s, ptr %9, i32 0, i32 8
  %11 = load ptr, ptr %10, align 8, !tbaa !17
  %12 = icmp eq ptr %11, null
  br i1 %12, label %18, label %13

13:                                               ; preds = %8
  %14 = load ptr, ptr %3, align 8, !tbaa !3
  %15 = getelementptr inbounds nuw %struct.z_stream_s, ptr %14, i32 0, i32 9
  %16 = load ptr, ptr %15, align 8, !tbaa !19
  %17 = icmp eq ptr %16, null
  br i1 %17, label %18, label %19

18:                                               ; preds = %13, %8, %1
  store i32 1, ptr %2, align 4
  store i32 1, ptr %5, align 4
  br label %73

19:                                               ; preds = %13
  %20 = load ptr, ptr %3, align 8, !tbaa !3
  %21 = getelementptr inbounds nuw %struct.z_stream_s, ptr %20, i32 0, i32 7
  %22 = load ptr, ptr %21, align 8, !tbaa !21
  store ptr %22, ptr %4, align 8, !tbaa !20
  %23 = load ptr, ptr %4, align 8, !tbaa !20
  %24 = icmp eq ptr %23, null
  br i1 %24, label %71, label %25

25:                                               ; preds = %19
  %26 = load ptr, ptr %4, align 8, !tbaa !20
  %27 = getelementptr inbounds nuw %struct.internal_state, ptr %26, i32 0, i32 0
  %28 = load ptr, ptr %27, align 8, !tbaa !22
  %29 = load ptr, ptr %3, align 8, !tbaa !3
  %30 = icmp ne ptr %28, %29
  br i1 %30, label %71, label %31

31:                                               ; preds = %25
  %32 = load ptr, ptr %4, align 8, !tbaa !20
  %33 = getelementptr inbounds nuw %struct.internal_state, ptr %32, i32 0, i32 1
  %34 = load i32, ptr %33, align 8, !tbaa !30
  %35 = icmp ne i32 %34, 42
  br i1 %35, label %36, label %72

36:                                               ; preds = %31
  %37 = load ptr, ptr %4, align 8, !tbaa !20
  %38 = getelementptr inbounds nuw %struct.internal_state, ptr %37, i32 0, i32 1
  %39 = load i32, ptr %38, align 8, !tbaa !30
  %40 = icmp ne i32 %39, 57
  br i1 %40, label %41, label %72

41:                                               ; preds = %36
  %42 = load ptr, ptr %4, align 8, !tbaa !20
  %43 = getelementptr inbounds nuw %struct.internal_state, ptr %42, i32 0, i32 1
  %44 = load i32, ptr %43, align 8, !tbaa !30
  %45 = icmp ne i32 %44, 69
  br i1 %45, label %46, label %72

46:                                               ; preds = %41
  %47 = load ptr, ptr %4, align 8, !tbaa !20
  %48 = getelementptr inbounds nuw %struct.internal_state, ptr %47, i32 0, i32 1
  %49 = load i32, ptr %48, align 8, !tbaa !30
  %50 = icmp ne i32 %49, 73
  br i1 %50, label %51, label %72

51:                                               ; preds = %46
  %52 = load ptr, ptr %4, align 8, !tbaa !20
  %53 = getelementptr inbounds nuw %struct.internal_state, ptr %52, i32 0, i32 1
  %54 = load i32, ptr %53, align 8, !tbaa !30
  %55 = icmp ne i32 %54, 91
  br i1 %55, label %56, label %72

56:                                               ; preds = %51
  %57 = load ptr, ptr %4, align 8, !tbaa !20
  %58 = getelementptr inbounds nuw %struct.internal_state, ptr %57, i32 0, i32 1
  %59 = load i32, ptr %58, align 8, !tbaa !30
  %60 = icmp ne i32 %59, 103
  br i1 %60, label %61, label %72

61:                                               ; preds = %56
  %62 = load ptr, ptr %4, align 8, !tbaa !20
  %63 = getelementptr inbounds nuw %struct.internal_state, ptr %62, i32 0, i32 1
  %64 = load i32, ptr %63, align 8, !tbaa !30
  %65 = icmp ne i32 %64, 113
  br i1 %65, label %66, label %72

66:                                               ; preds = %61
  %67 = load ptr, ptr %4, align 8, !tbaa !20
  %68 = getelementptr inbounds nuw %struct.internal_state, ptr %67, i32 0, i32 1
  %69 = load i32, ptr %68, align 8, !tbaa !30
  %70 = icmp ne i32 %69, 666
  br i1 %70, label %71, label %72

71:                                               ; preds = %66, %25, %19
  store i32 1, ptr %2, align 4
  store i32 1, ptr %5, align 4
  br label %73

72:                                               ; preds = %66, %61, %56, %51, %46, %41, %36, %31
  store i32 0, ptr %2, align 4
  store i32 1, ptr %5, align 4
  br label %73

73:                                               ; preds = %72, %71, %18
  call void @llvm.lifetime.end.p0(i64 8, ptr %4) #5
  %74 = load i32, ptr %2, align 4
  ret i32 %74
}

; Function Attrs: nounwind uwtable
define i32 @deflateEnd(ptr noundef %0) #0 {
  %2 = alloca i32, align 4
  %3 = alloca ptr, align 8
  %4 = alloca i32, align 4
  %5 = alloca i32, align 4
  store ptr %0, ptr %3, align 8, !tbaa !3
  call void @llvm.lifetime.start.p0(i64 4, ptr %4) #5
  %6 = load ptr, ptr %3, align 8, !tbaa !3
  %7 = call i32 @deflateStateCheck(ptr noundef %6)
  %8 = icmp ne i32 %7, 0
  br i1 %8, label %9, label %10

9:                                                ; preds = %1
  store i32 -2, ptr %2, align 4
  store i32 1, ptr %5, align 4
  br label %106

10:                                               ; preds = %1
  %11 = load ptr, ptr %3, align 8, !tbaa !3
  %12 = getelementptr inbounds nuw %struct.z_stream_s, ptr %11, i32 0, i32 7
  %13 = load ptr, ptr %12, align 8, !tbaa !21
  %14 = getelementptr inbounds nuw %struct.internal_state, ptr %13, i32 0, i32 1
  %15 = load i32, ptr %14, align 8, !tbaa !30
  store i32 %15, ptr %4, align 4, !tbaa !8
  %16 = load ptr, ptr %3, align 8, !tbaa !3
  %17 = getelementptr inbounds nuw %struct.z_stream_s, ptr %16, i32 0, i32 7
  %18 = load ptr, ptr %17, align 8, !tbaa !21
  %19 = getelementptr inbounds nuw %struct.internal_state, ptr %18, i32 0, i32 2
  %20 = load ptr, ptr %19, align 8, !tbaa !45
  %21 = icmp ne ptr %20, null
  br i1 %21, label %22, label %34

22:                                               ; preds = %10
  %23 = load ptr, ptr %3, align 8, !tbaa !3
  %24 = getelementptr inbounds nuw %struct.z_stream_s, ptr %23, i32 0, i32 9
  %25 = load ptr, ptr %24, align 8, !tbaa !19
  %26 = load ptr, ptr %3, align 8, !tbaa !3
  %27 = getelementptr inbounds nuw %struct.z_stream_s, ptr %26, i32 0, i32 10
  %28 = load ptr, ptr %27, align 8, !tbaa !18
  %29 = load ptr, ptr %3, align 8, !tbaa !3
  %30 = getelementptr inbounds nuw %struct.z_stream_s, ptr %29, i32 0, i32 7
  %31 = load ptr, ptr %30, align 8, !tbaa !21
  %32 = getelementptr inbounds nuw %struct.internal_state, ptr %31, i32 0, i32 2
  %33 = load ptr, ptr %32, align 8, !tbaa !45
  call void %25(ptr noundef %28, ptr noundef %33)
  br label %34

34:                                               ; preds = %22, %10
  %35 = load ptr, ptr %3, align 8, !tbaa !3
  %36 = getelementptr inbounds nuw %struct.z_stream_s, ptr %35, i32 0, i32 7
  %37 = load ptr, ptr %36, align 8, !tbaa !21
  %38 = getelementptr inbounds nuw %struct.internal_state, ptr %37, i32 0, i32 17
  %39 = load ptr, ptr %38, align 8, !tbaa !42
  %40 = icmp ne ptr %39, null
  br i1 %40, label %41, label %53

41:                                               ; preds = %34
  %42 = load ptr, ptr %3, align 8, !tbaa !3
  %43 = getelementptr inbounds nuw %struct.z_stream_s, ptr %42, i32 0, i32 9
  %44 = load ptr, ptr %43, align 8, !tbaa !19
  %45 = load ptr, ptr %3, align 8, !tbaa !3
  %46 = getelementptr inbounds nuw %struct.z_stream_s, ptr %45, i32 0, i32 10
  %47 = load ptr, ptr %46, align 8, !tbaa !18
  %48 = load ptr, ptr %3, align 8, !tbaa !3
  %49 = getelementptr inbounds nuw %struct.z_stream_s, ptr %48, i32 0, i32 7
  %50 = load ptr, ptr %49, align 8, !tbaa !21
  %51 = getelementptr inbounds nuw %struct.internal_state, ptr %50, i32 0, i32 17
  %52 = load ptr, ptr %51, align 8, !tbaa !42
  call void %44(ptr noundef %47, ptr noundef %52)
  br label %53

53:                                               ; preds = %41, %34
  %54 = load ptr, ptr %3, align 8, !tbaa !3
  %55 = getelementptr inbounds nuw %struct.z_stream_s, ptr %54, i32 0, i32 7
  %56 = load ptr, ptr %55, align 8, !tbaa !21
  %57 = getelementptr inbounds nuw %struct.internal_state, ptr %56, i32 0, i32 16
  %58 = load ptr, ptr %57, align 8, !tbaa !41
  %59 = icmp ne ptr %58, null
  br i1 %59, label %60, label %72

60:                                               ; preds = %53
  %61 = load ptr, ptr %3, align 8, !tbaa !3
  %62 = getelementptr inbounds nuw %struct.z_stream_s, ptr %61, i32 0, i32 9
  %63 = load ptr, ptr %62, align 8, !tbaa !19
  %64 = load ptr, ptr %3, align 8, !tbaa !3
  %65 = getelementptr inbounds nuw %struct.z_stream_s, ptr %64, i32 0, i32 10
  %66 = load ptr, ptr %65, align 8, !tbaa !18
  %67 = load ptr, ptr %3, align 8, !tbaa !3
  %68 = getelementptr inbounds nuw %struct.z_stream_s, ptr %67, i32 0, i32 7
  %69 = load ptr, ptr %68, align 8, !tbaa !21
  %70 = getelementptr inbounds nuw %struct.internal_state, ptr %69, i32 0, i32 16
  %71 = load ptr, ptr %70, align 8, !tbaa !41
  call void %63(ptr noundef %66, ptr noundef %71)
  br label %72

72:                                               ; preds = %60, %53
  %73 = load ptr, ptr %3, align 8, !tbaa !3
  %74 = getelementptr inbounds nuw %struct.z_stream_s, ptr %73, i32 0, i32 7
  %75 = load ptr, ptr %74, align 8, !tbaa !21
  %76 = getelementptr inbounds nuw %struct.internal_state, ptr %75, i32 0, i32 14
  %77 = load ptr, ptr %76, align 8, !tbaa !40
  %78 = icmp ne ptr %77, null
  br i1 %78, label %79, label %91

79:                                               ; preds = %72
  %80 = load ptr, ptr %3, align 8, !tbaa !3
  %81 = getelementptr inbounds nuw %struct.z_stream_s, ptr %80, i32 0, i32 9
  %82 = load ptr, ptr %81, align 8, !tbaa !19
  %83 = load ptr, ptr %3, align 8, !tbaa !3
  %84 = getelementptr inbounds nuw %struct.z_stream_s, ptr %83, i32 0, i32 10
  %85 = load ptr, ptr %84, align 8, !tbaa !18
  %86 = load ptr, ptr %3, align 8, !tbaa !3
  %87 = getelementptr inbounds nuw %struct.z_stream_s, ptr %86, i32 0, i32 7
  %88 = load ptr, ptr %87, align 8, !tbaa !21
  %89 = getelementptr inbounds nuw %struct.internal_state, ptr %88, i32 0, i32 14
  %90 = load ptr, ptr %89, align 8, !tbaa !40
  call void %82(ptr noundef %85, ptr noundef %90)
  br label %91

91:                                               ; preds = %79, %72
  %92 = load ptr, ptr %3, align 8, !tbaa !3
  %93 = getelementptr inbounds nuw %struct.z_stream_s, ptr %92, i32 0, i32 9
  %94 = load ptr, ptr %93, align 8, !tbaa !19
  %95 = load ptr, ptr %3, align 8, !tbaa !3
  %96 = getelementptr inbounds nuw %struct.z_stream_s, ptr %95, i32 0, i32 10
  %97 = load ptr, ptr %96, align 8, !tbaa !18
  %98 = load ptr, ptr %3, align 8, !tbaa !3
  %99 = getelementptr inbounds nuw %struct.z_stream_s, ptr %98, i32 0, i32 7
  %100 = load ptr, ptr %99, align 8, !tbaa !21
  call void %94(ptr noundef %97, ptr noundef %100)
  %101 = load ptr, ptr %3, align 8, !tbaa !3
  %102 = getelementptr inbounds nuw %struct.z_stream_s, ptr %101, i32 0, i32 7
  store ptr null, ptr %102, align 8, !tbaa !21
  %103 = load i32, ptr %4, align 4, !tbaa !8
  %104 = icmp eq i32 %103, 113
  %105 = select i1 %104, i32 -3, i32 0
  store i32 %105, ptr %2, align 4
  store i32 1, ptr %5, align 4
  br label %106

106:                                              ; preds = %91, %9
  call void @llvm.lifetime.end.p0(i64 4, ptr %4) #5
  %107 = load i32, ptr %2, align 4
  ret i32 %107
}