; Function Attrs: nounwind uwtable
define range(i32 -3, 1) i32 @deflateEnd(ptr noundef captures(address) %0) local_unnamed_addr #0 {
  %2 = icmp eq ptr %0, null
  br i1 %2, label %deflateStateCheck.exit.thread, label %3

3:                                                ; preds = %1
  %4 = getelementptr inbounds nuw i8, ptr %0, i64 64
  %5 = load ptr, ptr %4, align 8, !tbaa !13
  %6 = icmp eq ptr %5, null
  br i1 %6, label %deflateStateCheck.exit.thread, label %7

7:                                                ; preds = %3
  %8 = getelementptr inbounds nuw i8, ptr %0, i64 72
  %9 = load ptr, ptr %8, align 8, !tbaa !15
  %10 = icmp eq ptr %9, null
  br i1 %10, label %deflateStateCheck.exit.thread, label %11

11:                                               ; preds = %7
  %12 = getelementptr inbounds nuw i8, ptr %0, i64 56
  %13 = load ptr, ptr %12, align 8, !tbaa !16
  %14 = icmp eq ptr %13, null
  br i1 %14, label %deflateStateCheck.exit.thread, label %15

15:                                               ; preds = %11
  %16 = load ptr, ptr %13, align 8, !tbaa !17
  %.not.i = icmp eq ptr %16, %0
  br i1 %.not.i, label %17, label %deflateStateCheck.exit.thread

17:                                               ; preds = %15
  %18 = getelementptr inbounds nuw i8, ptr %13, i64 8
  %19 = load i32, ptr %18, align 8, !tbaa !26
  switch i32 %19, label %deflateStateCheck.exit.thread [
    i32 42, label %deflateStateCheck.exit
    i32 57, label %deflateStateCheck.exit
    i32 69, label %deflateStateCheck.exit
    i32 73, label %deflateStateCheck.exit
    i32 91, label %deflateStateCheck.exit
    i32 103, label %deflateStateCheck.exit
    i32 113, label %deflateStateCheck.exit
    i32 666, label %deflateStateCheck.exit
  ]

deflateStateCheck.exit:                           ; preds = %17, %17, %17, %17, %17, %17, %17, %17
  %20 = getelementptr inbounds nuw i8, ptr %13, i64 16
  %21 = load ptr, ptr %20, align 8, !tbaa !41
  %.not27 = icmp eq ptr %21, null
  br i1 %.not27, label %25, label %22

22:                                               ; preds = %deflateStateCheck.exit
  %23 = getelementptr inbounds nuw i8, ptr %0, i64 80
  %24 = load ptr, ptr %23, align 8, !tbaa !14
  tail call void %9(ptr noundef %24, ptr noundef nonnull %21) #10
  %.pre = load ptr, ptr %12, align 8, !tbaa !16
  %.pre36.pre38.pre40.pre = load ptr, ptr %8, align 8, !tbaa !15
  br label %25

25:                                               ; preds = %22, %deflateStateCheck.exit
  %.pre36.pre38.pre40 = phi ptr [ %.pre36.pre38.pre40.pre, %22 ], [ %9, %deflateStateCheck.exit ]
  %26 = phi ptr [ %.pre, %22 ], [ %13, %deflateStateCheck.exit ]
  %27 = getelementptr inbounds nuw i8, ptr %26, i64 120
  %28 = load ptr, ptr %27, align 8, !tbaa !38
  %.not28 = icmp eq ptr %28, null
  br i1 %.not28, label %32, label %29

29:                                               ; preds = %25
  %30 = getelementptr inbounds nuw i8, ptr %0, i64 80
  %31 = load ptr, ptr %30, align 8, !tbaa !14
  tail call void %.pre36.pre38.pre40(ptr noundef %31, ptr noundef nonnull %28) #10
  %.pre33 = load ptr, ptr %12, align 8, !tbaa !16
  %.pre36.pre38.pre = load ptr, ptr %8, align 8, !tbaa !15
  br label %32

32:                                               ; preds = %29, %25
  %.pre36.pre38 = phi ptr [ %.pre36.pre38.pre, %29 ], [ %.pre36.pre38.pre40, %25 ]
  %33 = phi ptr [ %.pre33, %29 ], [ %26, %25 ]
  %34 = getelementptr inbounds nuw i8, ptr %33, i64 112
  %35 = load ptr, ptr %34, align 8, !tbaa !37
  %.not29 = icmp eq ptr %35, null
  br i1 %.not29, label %39, label %36

36:                                               ; preds = %32
  %37 = getelementptr inbounds nuw i8, ptr %0, i64 80
  %38 = load ptr, ptr %37, align 8, !tbaa !14
  tail call void %.pre36.pre38(ptr noundef %38, ptr noundef nonnull %35) #10
  %.pre34 = load ptr, ptr %12, align 8, !tbaa !16
  %.pre36.pre = load ptr, ptr %8, align 8, !tbaa !15
  br label %39

39:                                               ; preds = %36, %32
  %.pre36 = phi ptr [ %.pre36.pre, %36 ], [ %.pre36.pre38, %32 ]
  %40 = phi ptr [ %.pre34, %36 ], [ %33, %32 ]
  %41 = getelementptr inbounds nuw i8, ptr %40, i64 96
  %42 = load ptr, ptr %41, align 8, !tbaa !36
  %.not30 = icmp eq ptr %42, null
  br i1 %.not30, label %46, label %43

43:                                               ; preds = %39
  %44 = getelementptr inbounds nuw i8, ptr %0, i64 80
  %45 = load ptr, ptr %44, align 8, !tbaa !14
  tail call void %.pre36(ptr noundef %45, ptr noundef nonnull %42) #10
  %.pre35 = load ptr, ptr %8, align 8, !tbaa !15
  %.pre37 = load ptr, ptr %12, align 8, !tbaa !16
  br label %46

46:                                               ; preds = %43, %39
  %47 = phi ptr [ %.pre37, %43 ], [ %40, %39 ]
  %48 = phi ptr [ %.pre35, %43 ], [ %.pre36, %39 ]
  %49 = getelementptr inbounds nuw i8, ptr %0, i64 80
  %50 = load ptr, ptr %49, align 8, !tbaa !14
  tail call void %48(ptr noundef %50, ptr noundef %47) #10
  store ptr null, ptr %12, align 8, !tbaa !16
  %51 = icmp eq i32 %19, 113
  %52 = select i1 %51, i32 -3, i32 0
  br label %deflateStateCheck.exit.thread

deflateStateCheck.exit.thread:                    ; preds = %11, %15, %17, %1, %3, %7, %46
  %.0 = phi i32 [ %52, %46 ], [ -2, %7 ], [ -2, %3 ], [ -2, %1 ], [ -2, %17 ], [ -2, %15 ], [ -2, %11 ]
  ret i32 %.0
}